(lp0
(lp1
S'7.6268722815'
p2
aS'11.5766818556'
p3
aa(lp4
S'3.21104371774'
p5
aS'18.0304804506'
p6
aa(lp7
S'6.09981838623'
p8
aS'10.3238289289'
p9
aa(lp10
S'5.94001619737'
p11
aS'13.6116539745'
p12
aa(lp13
S'6.76694560065'
p14
aS'14.5320025818'
p15
aa(lp16
S'1.88676612949'
p17
aS'10.7542905531'
p18
aa(lp19
S'5.77189295673'
p20
aS'16.4264596418'
p21
aa(lp22
S'6.3147301523'
p23
aS'12.9976760332'
p24
aa(lp25
S'5.98048820159'
p26
aS'11.7736508015'
p27
aa(lp28
S'3.5652133366'
p29
aS'15.1133551973'
p30
aa(lp31
S'6.56163707634'
p32
aS'11.9833206717'
p33
aa(lp34
S'9.19404968429'
p35
aS'12.0401622481'
p36
aa(lp37
S'7.76839186682'
p38
aS'19.380418222'
p39
aa(lp40
S'4.67482977684'
p41
aS'13.8553794551'
p42
aa(lp43
S'9.74932595357'
p44
aS'15.7758100234'
p45
aa(lp46
S'7.05092177817'
p47
aS'19.4621648632'
p48
aa(lp49
S'5.81454402735'
p50
aS'19.1302734275'
p51
aa(lp52
S'9.2510287094'
p53
aS'12.8484970974'
p54
aa(lp55
S'1.4887200741'
p56
aS'13.8806835378'
p57
aa(lp58
S'7.98165392273'
p59
aS'14.4463267169'
p60
aa(lp61
S'9.2525483565'
p62
aS'18.1079459401'
p63
aa(lp64
S'3.71393071585'
p65
aS'13.9193801961'
p66
aa(lp67
S'4.51914668541'
p68
aS'10.2383929021'
p69
aa(lp70
S'1.14751750664'
p71
aS'12.6249576515'
p72
aa(lp73
S'9.90553760837'
p74
aS'13.6634536409'
p75
aa(lp76
S'7.32612257215'
p77
aS'10.399919968'
p78
aa(lp79
S'7.84276262871'
p80
aS'19.3207490517'
p81
aa(lp82
S'4.23527534536'
p83
aS'11.132869838'
p84
aa(lp85
S'1.22986858701'
p86
aS'18.6442933544'
p87
aa(lp88
S'0.601981679289'
p89
aS'14.7331849128'
p90
aa(lp91
S'0.147169800088'
p92
aS'13.6527979218'
p93
aa(lp94
S'3.49028878944'
p95
aS'17.5683973486'
p96
aa(lp97
S'3.5724786615'
p98
aS'15.5114296796'
p99
aa(lp100
S'9.25982414948'
p101
aS'10.4752364319'
p102
aa(lp103
S'1.95017454914'
p104
aS'14.8260449802'
p105
aa(lp106
S'9.76629137091'
p107
aS'14.4397441133'
p108
aa(lp109
S'7.72577047265'
p110
aS'16.228710481'
p111
aa(lp112
S'2.50454588062'
p113
aS'13.1937397585'
p114
aa(lp115
S'8.0226710836'
p116
aS'18.5488743557'
p117
aa(lp118
S'4.9228699971'
p119
aS'12.7941198204'
p120
aa(lp121
S'7.51919081333'
p122
aS'12.7764421313'
p123
aa(lp124
S'4.88887980762'
p125
aS'19.9721412952'
p126
aa(lp127
S'7.67441767264'
p128
aS'15.0172011392'
p129
aa(lp130
S'6.36965451059'
p131
aS'17.8472691'
p132
aa(lp133
S'2.69677645254'
p134
aS'17.1022188713'
p135
aa(lp136
S'5.65490523261'
p137
aS'12.2910282545'
p138
aa(lp139
S'9.57604596202'
p140
aS'13.0253435728'
p141
aa(lp142
S'7.93523682193'
p143
aS'10.4980627031'
p144
aa(lp145
S'8.88885650779'
p146
aS'12.6714788927'
p147
aa(lp148
S'1.71542784352'
p149
aS'12.1213423533'
p150
aa(lp151
S'3.59114775147'
p152
aS'15.0829246172'
p153
aa(lp154
S'9.80330230023'
p155
aS'16.4486497192'
p156
aa(lp157
S'2.82281972058'
p158
aS'15.2716934975'
p159
aa(lp160
S'0.448724769622'
p161
aS'11.2641455287'
p162
aa(lp163
S'9.99355816669'
p164
aS'13.790159313'
p165
aa(lp166
S'1.31743019401'
p167
aS'19.8545621592'
p168
aa(lp169
S'9.43867504201'
p170
aS'13.0182606652'
p171
aa(lp172
S'6.1902131287'
p173
aS'17.3962323306'
p174
aa(lp175
S'5.97205724471'
p176
aS'18.1889683573'
p177
aa(lp178
S'9.98692703444'
p179
aS'18.5217566199'
p180
aa(lp181
S'2.14112095215'
p182
aS'18.9738974514'
p183
aa(lp184
S'9.36729240205'
p185
aS'10.7438631588'
p186
aa(lp187
S'1.62832357134'
p188
aS'10.0138575544'
p189
aa(lp190
S'4.60579685075'
p191
aS'10.2392457017'
p192
aa(lp193
S'0.405175558225'
p194
aS'17.0179063173'
p195
aa(lp196
S'0.259741442302'
p197
aS'17.1129054432'
p198
aa(lp199
S'8.29401302234'
p200
aS'17.0341803609'
p201
aa(lp202
S'0.773390860038'
p203
aS'13.8339051574'
p204
aa(lp205
S'4.50291666758'
p206
aS'11.6339448068'
p207
aa(lp208
S'2.90068380702'
p209
aS'11.2805519509'
p210
aa(lp211
S'7.23054686641'
p212
aS'11.7238319972'
p213
aa(lp214
S'2.67538827303'
p215
aS'18.8281258494'
p216
aa(lp217
S'6.50918237976'
p218
aS'13.9837645329'
p219
aa(lp220
S'5.30503224998'
p221
aS'13.173871994'
p222
aa(lp223
S'3.45159714181'
p224
aS'15.5853549933'
p225
aa(lp226
S'6.9463850814'
p227
aS'19.7419822972'
p228
aa(lp229
S'6.30471076714'
p230
aS'10.1586159285'
p231
aa(lp232
S'7.52304589319'
p233
aS'11.7345547974'
p234
aa(lp235
S'6.57167309897'
p236
aS'10.1200216385'
p237
aa(lp238
S'7.9880399838'
p239
aS'16.3961567638'
p240
aa(lp241
S'5.3597837542'
p242
aS'18.7063806972'
p243
aa(lp244
S'0.73337869041'
p245
aS'15.7784384707'
p246
aa(lp247
S'7.61159177747'
p248
aS'19.0464728824'
p249
aa(lp250
S'1.78002175247'
p251
aS'12.818830001'
p252
aa(lp253
S'8.80676439777'
p254
aS'12.3073844588'
p255
aa(lp256
S'6.91393153484'
p257
aS'11.4980132728'
p258
aa(lp259
S'2.65272236668'
p260
aS'10.9275376503'
p261
aa(lp262
S'5.24553697842'
p263
aS'14.7455239294'
p264
aa(lp265
S'1.14025071489'
p266
aS'13.2307783389'
p267
aa(lp268
S'7.51334990572'
p269
aS'14.1300584012'
p270
aa(lp271
S'2.84988749005'
p272
aS'18.4198212495'
p273
aa(lp274
S'5.71602936673'
p275
aS'12.5456421898'
p276
aa(lp277
S'9.28225190007'
p278
aS'15.1671191527'
p279
aa(lp280
S'6.65379835201'
p281
aS'18.2601996332'
p282
aa(lp283
S'8.75874408712'
p284
aS'12.8842153493'
p285
aa(lp286
S'4.61701651067'
p287
aS'13.0319055352'
p288
aa(lp289
S'9.58566360373'
p290
aS'17.5214871979'
p291
aa(lp292
S'4.21455526887'
p293
aS'16.3875398415'
p294
aa(lp295
S'3.59519239538'
p296
aS'11.3663983765'
p297
aa(lp298
S'1.23672091108'
p299
aS'19.1379775516'
p300
aa(lp301
S'13.9450615604'
p302
aS'11.5873066335'
p303
aa(lp304
S'18.2073839194'
p305
aS'19.8703846708'
p306
aa(lp307
S'18.1446282031'
p308
aS'14.7736125097'
p309
aa(lp310
S'11.3352999115'
p311
aS'18.1194431567'
p312
aa(lp313
S'14.3435218207'
p314
aS'17.9525046679'
p315
aa(lp316
S'16.2463755468'
p317
aS'19.8267609445'
p318
aa(lp319
S'15.5350174149'
p320
aS'15.2593371605'
p321
aa(lp322
S'18.3464314809'
p323
aS'18.6079519521'
p324
aa(lp325
S'12.4422854531'
p326
aS'16.1796458867'
p327
aa(lp328
S'14.5102013815'
p329
aS'19.8817398887'
p330
aa(lp331
S'18.0928593929'
p332
aS'13.9949573203'
p333
aa(lp334
S'10.7975750111'
p335
aS'11.3301000655'
p336
aa(lp337
S'12.0754373964'
p338
aS'15.4740933844'
p339
aa(lp340
S'18.5580533115'
p341
aS'15.4531309859'
p342
aa(lp343
S'16.8566532876'
p344
aS'15.4473543696'
p345
aa(lp346
S'15.96600884'
p347
aS'13.3413652127'
p348
aa(lp349
S'10.800003014'
p350
aS'17.2426567808'
p351
aa(lp352
S'11.896129883'
p353
aS'15.2833456817'
p354
aa(lp355
S'10.0778021005'
p356
aS'13.8571451711'
p357
aa(lp358
S'10.0777668223'
p359
aS'16.0502153351'
p360
aa(lp361
S'17.3371604038'
p362
aS'17.1521481933'
p363
aa(lp364
S'19.4098486572'
p365
aS'12.1953332711'
p366
aa(lp367
S'12.585315522'
p368
aS'11.3644576018'
p369
aa(lp370
S'14.2425488443'
p371
aS'11.179718175'
p372
aa(lp373
S'18.1638726652'
p374
aS'15.8271795343'
p375
aa(lp376
S'19.1467226332'
p377
aS'11.0423317758'
p378
aa(lp379
S'10.3960827901'
p380
aS'18.0316866202'
p381
aa(lp382
S'15.0761581916'
p383
aS'11.0569928232'
p384
aa(lp385
S'12.1440258369'
p386
aS'11.914935926'
p387
aa(lp388
S'19.6844533799'
p389
aS'13.2372119748'
p390
aa(lp391
S'17.4798316545'
p392
aS'14.334920551'
p393
aa(lp394
S'18.1239337276'
p395
aS'15.2320475728'
p396
aa(lp397
S'10.2407173493'
p398
aS'16.6708792706'
p399
aa(lp400
S'19.1060005554'
p401
aS'17.3626048536'
p402
aa(lp403
S'18.3498425399'
p404
aS'18.4676390558'
p405
aa(lp406
S'15.8848413581'
p407
aS'13.2594806935'
p408
aa(lp409
S'12.3765982111'
p410
aS'11.8143371452'
p411
aa(lp412
S'11.2822623212'
p413
aS'19.6243105604'
p414
aa(lp415
S'17.0363469705'
p416
aS'13.1759043981'
p417
aa(lp418
S'11.2475756288'
p419
aS'19.7257226213'
p420
aa(lp421
S'16.4335879274'
p422
aS'12.6142406443'
p423
aa(lp424
S'15.3352019896'
p425
aS'19.0916692406'
p426
aa(lp427
S'12.0479608122'
p428
aS'17.4000524679'
p429
aa(lp430
S'16.0694374331'
p431
aS'14.6351076805'
p432
aa(lp433
S'18.1206581518'
p434
aS'13.8299156527'
p435
aa(lp436
S'12.5921613522'
p437
aS'12.7582732403'
p438
aa(lp439
S'16.8324220925'
p440
aS'15.4954157292'
p441
aa(lp442
S'15.9439850844'
p443
aS'12.8559371045'
p444
aa(lp445
S'11.2990525622'
p446
aS'10.1038296029'
p447
aa(lp448
S'13.030181038'
p449
aS'14.0422285614'
p450
aa(lp451
S'18.3637693406'
p452
aS'10.143405625'
p453
aa(lp454
S'18.5981970606'
p455
aS'13.9190242132'
p456
aa(lp457
S'12.8406732354'
p458
aS'12.2562663933'
p459
aa(lp460
S'16.9800122351'
p461
aS'13.455589113'
p462
aa(lp463
S'13.4475783206'
p464
aS'13.7020412725'
p465
aa(lp466
S'14.7129788701'
p467
aS'18.5501185423'
p468
aa(lp469
S'10.5777752715'
p470
aS'14.0204753661'
p471
aa(lp472
S'15.7565260115'
p473
aS'18.1553014352'
p474
aa(lp475
S'18.4019741208'
p476
aS'17.7880959854'
p477
aa(lp478
S'16.0929652457'
p479
aS'18.1569463863'
p480
aa(lp481
S'18.1708144667'
p482
aS'11.1884212557'
p483
aa(lp484
S'14.7038474239'
p485
aS'15.3294090208'
p486
aa(lp487
S'19.4499128592'
p488
aS'16.2266444458'
p489
aa(lp490
S'17.1549837293'
p491
aS'12.4995951043'
p492
aa(lp493
S'15.5935149768'
p494
aS'19.2890293082'
p495
aa(lp496
S'16.8149841212'
p497
aS'14.5600171482'
p498
aa(lp499
S'12.0112538343'
p500
aS'12.9663089453'
p501
aa(lp502
S'14.9836930226'
p503
aS'18.9572806381'
p504
aa(lp505
S'10.5210451482'
p506
aS'19.7478064933'
p507
aa(lp508
S'11.7391001438'
p509
aS'15.1895749579'
p510
aa(lp511
S'15.1663238581'
p512
aS'16.997974758'
p513
aa(lp514
S'10.2624631993'
p515
aS'11.4760850264'
p516
aa(lp517
S'13.297427431'
p518
aS'14.9280871976'
p519
aa(lp520
S'16.6437137656'
p521
aS'17.087859527'
p522
aa(lp523
S'13.1947974633'
p524
aS'14.9634644016'
p525
aa(lp526
S'19.5859114504'
p527
aS'14.1006910276'
p528
aa(lp529
S'14.7206906236'
p530
aS'18.6564798716'
p531
aa(lp532
S'10.2088187768'
p533
aS'12.4342982'
p534
aa(lp535
S'12.4543470121'
p536
aS'14.5427228884'
p537
aa(lp538
S'15.4149267617'
p539
aS'15.6178700294'
p540
aa(lp541
S'10.9444509663'
p542
aS'11.2695755263'
p543
aa(lp544
S'15.4976827599'
p545
aS'18.3647182626'
p546
aa(lp547
S'17.2352968015'
p548
aS'18.7453637661'
p549
aa(lp550
S'18.9894334925'
p551
aS'17.5220781773'
p552
aa(lp553
S'11.5814527308'
p554
aS'19.0924428125'
p555
aa(lp556
S'17.494822465'
p557
aS'17.1752537858'
p558
aa(lp559
S'13.5235679119'
p560
aS'19.5665200207'
p561
aa(lp562
S'19.2375710154'
p563
aS'18.2691729049'
p564
aa(lp565
S'16.9659600414'
p566
aS'13.4493717726'
p567
aa(lp568
S'13.7392058587'
p569
aS'17.9813960828'
p570
aa(lp571
S'14.3041109644'
p572
aS'15.114372327'
p573
aa(lp574
S'19.9920720351'
p575
aS'10.8870703912'
p576
aa(lp577
S'19.8845143909'
p578
aS'19.3246703896'
p579
aa(lp580
S'11.5389491984'
p581
aS'18.3879246374'
p582
aa(lp583
S'19.5803807048'
p584
aS'15.9067781149'
p585
aa(lp586
S'10.5690281959'
p587
aS'18.9529619505'
p588
aa(lp589
S'19.8219555391'
p590
aS'17.078982215'
p591
aa(lp592
S'13.605481453'
p593
aS'18.478172489'
p594
aa(lp595
S'14.6377600295'
p596
aS'19.3859069696'
p597
aa(lp598
S'13.1470973391'
p599
aS'13.6443561814'
p600
aa.